target datalayout = "e-m:e-p270:32:32-p271:32:32-p272:64:64-i64:64-i128:128-f80:128-n8:16:32:64-S128"
target triple = "x86_64-pc-linux-gnu"

%"class.icu_77::StringPiece" = type <{ ptr, i32, [4 x i8] }>
%"class.icu_77::BytesTrieBuilder" = type { %"class.icu_77::StringTrieBuilder", ptr, ptr, i32, i32, ptr, i32, i32 }
%"class.icu_77::StringTrieBuilder" = type { %"class.icu_77::UObject", ptr }
%"class.icu_77::UObject" = type { ptr }

; Function Attrs: mustprogress nounwind uwtable
define linkonce_odr void @_ZN6icu_7711StringPiece3setEPKci(ptr noundef nonnull align 8 dereferenceable(12) %0, ptr noundef %1, i32 noundef %2) #0 comdat align 2 {
  %4 = alloca ptr, align 8
  %5 = alloca ptr, align 8
  %6 = alloca i32, align 4
  store ptr %0, ptr %4, align 8, !tbaa !30
  store ptr %1, ptr %5, align 8, !tbaa !17
  store i32 %2, ptr %6, align 4, !tbaa !14
  %7 = load ptr, ptr %4, align 8
  %8 = load ptr, ptr %5, align 8, !tbaa !17
  %9 = getelementptr inbounds nuw %"class.icu_77::StringPiece", ptr %7, i32 0, i32 0
  store ptr %8, ptr %9, align 8, !tbaa !36
  %10 = load i32, ptr %6, align 4, !tbaa !14
  %11 = getelementptr inbounds nuw %"class.icu_77::StringPiece", ptr %7, i32 0, i32 1
  store i32 %10, ptr %11, align 8, !tbaa !32
  ret void
}

; Function Attrs: inlinehint mustprogress nounwind uwtable
define internal noundef signext i8 @_ZL9U_SUCCESS10UErrorCode(i32 noundef %0) #2 {
  %2 = alloca i32, align 4
  store i32 %0, ptr %2, align 4, !tbaa !15
  %3 = load i32, ptr %2, align 4, !tbaa !15
  %4 = icmp sle i32 %3, 0
  %5 = zext i1 %4 to i8
  ret i8 %5
}

; Function Attrs: mustprogress nounwind uwtable
define linkonce_odr void @_ZN6icu_7711StringPieceC2Ev(ptr noundef nonnull align 8 dereferenceable(12) %0) unnamed_addr #0 comdat align 2 {
  %2 = alloca ptr, align 8
  store ptr %0, ptr %2, align 8, !tbaa !30
  %3 = load ptr, ptr %2, align 8
  %4 = getelementptr inbounds nuw %"class.icu_77::StringPiece", ptr %3, i32 0, i32 0
  store ptr null, ptr %4, align 8, !tbaa !36
  %5 = getelementptr inbounds nuw %"class.icu_77::StringPiece", ptr %3, i32 0, i32 1
  store i32 0, ptr %5, align 8, !tbaa !32
  ret void
}

; Function Attrs: mustprogress uwtable
define { ptr, i32 } @_ZN6icu_7716BytesTrieBuilder16buildStringPieceE22UStringTrieBuildOptionR10UErrorCode(ptr noundef nonnull align 8 dereferenceable(56) %0, i32 noundef %1, ptr noundef nonnull align 4 dereferenceable(4) %2) #1 align 2 {
  %4 = alloca %"class.icu_77::StringPiece", align 8
  %5 = alloca ptr, align 8
  %6 = alloca i32, align 4
  %7 = alloca ptr, align 8
  store ptr %0, ptr %5, align 8, !tbaa !37
  store i32 %1, ptr %6, align 4, !tbaa !53
  store ptr %2, ptr %7, align 8, !tbaa !22
  %8 = load ptr, ptr %5, align 8
  %9 = load i32, ptr %6, align 4, !tbaa !53
  %10 = load ptr, ptr %7, align 8, !tbaa !22
  call void @_ZN6icu_7716BytesTrieBuilder10buildBytesE22UStringTrieBuildOptionR10UErrorCode(ptr noundef nonnull align 8 dereferenceable(56) %8, i32 noundef %9, ptr noundef nonnull align 4 dereferenceable(4) %10)
  call void @_ZN6icu_7711StringPieceC2Ev(ptr noundef nonnull align 8 dereferenceable(12) %4)
  %11 = load ptr, ptr %7, align 8, !tbaa !22
  %12 = load i32, ptr %11, align 4, !tbaa !15
  %13 = call noundef signext i8 @_ZL9U_SUCCESS10UErrorCode(i32 noundef %12)
  %14 = icmp ne i8 %13, 0
  br i1 %14, label %15, label %27

15:                                               ; preds = %3
  %16 = getelementptr inbounds nuw %"class.icu_77::BytesTrieBuilder", ptr %8, i32 0, i32 5
  %17 = load ptr, ptr %16, align 8, !tbaa !49
  %18 = getelementptr inbounds nuw %"class.icu_77::BytesTrieBuilder", ptr %8, i32 0, i32 6
  %19 = load i32, ptr %18, align 8, !tbaa !50
  %20 = getelementptr inbounds nuw %"class.icu_77::BytesTrieBuilder", ptr %8, i32 0, i32 7
  %21 = load i32, ptr %20, align 4, !tbaa !51
  %22 = sub nsw i32 %19, %21
  %23 = sext i32 %22 to i64
  %24 = getelementptr inbounds i8, ptr %17, i64 %23
  %25 = getelementptr inbounds nuw %"class.icu_77::BytesTrieBuilder", ptr %8, i32 0, i32 7
  %26 = load i32, ptr %25, align 4, !tbaa !51
  call void @_ZN6icu_7711StringPiece3setEPKci(ptr noundef nonnull align 8 dereferenceable(12) %4, ptr noundef %24, i32 noundef %26)
  br label %27

27:                                               ; preds = %15, %3
  %28 = load { ptr, i32 }, ptr %4, align 8
  ret { ptr, i32 } %28
}