; Function Attrs: mustprogress uwtable
define { ptr, i32 } @_ZN6icu_7716BytesTrieBuilder16buildStringPieceE22UStringTrieBuildOptionR10UErrorCode(ptr noundef nonnull align 8 dereferenceable(56) %0, i32 noundef %1, ptr noundef nonnull align 4 dereferenceable(4) %2) local_unnamed_addr #1 align 2 {
  tail call void @_ZN6icu_7716BytesTrieBuilder10buildBytesE22UStringTrieBuildOptionR10UErrorCode(ptr noundef nonnull align 8 dereferenceable(56) %0, i32 noundef %1, ptr noundef nonnull align 4 dereferenceable(4) %2)
  %4 = load i32, ptr %2, align 4, !tbaa !13
  %5 = icmp sgt i32 %4, 0
  br i1 %5, label %16, label %6

6:                                                ; preds = %3
  %7 = getelementptr inbounds nuw i8, ptr %0, i64 40
  %8 = load ptr, ptr %7, align 8, !tbaa !31
  %9 = getelementptr inbounds nuw i8, ptr %0, i64 48
  %10 = load i32, ptr %9, align 8, !tbaa !35
  %11 = getelementptr inbounds nuw i8, ptr %0, i64 52
  %12 = load i32, ptr %11, align 4, !tbaa !32
  %13 = sub nsw i32 %10, %12
  %14 = sext i32 %13 to i64
  %15 = getelementptr inbounds i8, ptr %8, i64 %14
  br label %16

16:                                               ; preds = %6, %3
  %.sroa.3.0 = phi i32 [ 0, %3 ], [ %12, %6 ]
  %.sroa.0.0 = phi ptr [ null, %3 ], [ %15, %6 ]
  %.fca.0.insert = insertvalue { ptr, i32 } poison, ptr %.sroa.0.0, 0
  %.fca.1.insert = insertvalue { ptr, i32 } %.fca.0.insert, i32 %.sroa.3.0, 1
  ret { ptr, i32 } %.fca.1.insert
}